; Function Attrs: mustprogress noreturn uwtable
define noundef i64 @_ZN2cv4gapi3wip4draw12FTTextRender11getTextSizeERKNSt7__cxx1112basic_stringIwSt11char_traitsIwESaIwEEEiPi(ptr noundef nonnull readnone align 8 captures(none) dereferenceable(16) %0, ptr noundef nonnull readnone align 8 captures(none) dereferenceable(32) %1, i32 noundef %2, ptr noundef readnone captures(none) %3) local_unnamed_addr #3 align 2 personality ptr @__gxx_personality_v0 {
  %5 = alloca %"class.std::runtime_error", align 8
  call void @llvm.lifetime.start.p0(i64 16, ptr nonnull %5) #9
  call void @_ZNSt13runtime_errorC1EPKc(ptr noundef nonnull align 8 dereferenceable(16) %5, ptr noundef nonnull @.str)
  invoke void @_ZN2cv4util11throw_errorISt13runtime_errorEEvOT_(ptr noundef nonnull align 8 dereferenceable(16) %5) #10
          to label %6 unwind label %7

6:                                                ; preds = %4
  unreachable

7:                                                ; preds = %4
  %8 = landingpad { ptr, i32 }
          cleanup
  call void @_ZNSt13runtime_errorD1Ev(ptr noundef nonnull align 8 dereferenceable(16) %5) #9
  call void @llvm.lifetime.end.p0(i64 16, ptr nonnull %5) #9
  resume { ptr, i32 } %8
}